(dp1
F1.0000000000000001e-05
(dp2
S'LambdaRank'
p3
(dp4
I0
F0.40181646262986515
sI1
F0.4253256520101556
sI2
F0.43678430567701376
sI3
F0.44234854164622384
sI5
F0.44628137988722011
sI6
F0.44943129109196706
sI7
F0.44856833484200531
ssS'Pairwise'
p5
(dp6
I0
F0.4016822553212811
sI1
F0.40855469555682133
sI2
F0.42605181702488515
sI3
F0.43603236682929208
sssF0.001
(dp7
g3
(dp8
I0
F0.43138011425445977
sI1
F0.43272977103638982
sI2
F0.43121830794004212
sI3
F0.4264029540104145
ssg5
(dp9
I0
F0.34007796162470771
sI1
F0.33535259519280158
sI2
F0.36176702491634449
sI3
F0.37362115751337005
sssF0.0001
(dp10
g3
(dp11
I0
F0.43854639073785179
sI1
F0.46632270097897766
sI2
F0.45716924712898299
sI3
F0.46089344780061875
ssg5
(dp12
I0
F0.43912000945755941
sI1
F0.45074257670950318
sI2
F0.46030856353758942
sI3
F0.4246304739123446
sss.